target datalayout = "e-m:e-p270:32:32-p271:32:32-p272:64:64-i64:64-i128:128-f80:128-n8:16:32:64-S128"
target triple = "x86_64-pc-linux-gnu"

%struct.anon.1 = type { ptr, i32, i32, ptr }

; Function Attrs: nounwind uwtable
define i32 @sqlite3_ieee_init(ptr noundef %0, ptr noundef %1, ptr noundef %2) #0 {
  %4 = alloca ptr, align 8
  %5 = alloca ptr, align 8
  %6 = alloca ptr, align 8
  %7 = alloca i32, align 4
  %8 = alloca i32, align 4
  store ptr %0, ptr %4, align 8, !tbaa !19
  store ptr %1, ptr %5, align 8, !tbaa !21
  store ptr %2, ptr %6, align 8, !tbaa !23
  call void @llvm.lifetime.start.p0(i64 4, ptr %7) #14
  call void @llvm.lifetime.start.p0(i64 4, ptr %8) #14
  store i32 0, ptr %8, align 4, !tbaa !3
  store i32 0, ptr %7, align 4, !tbaa !3
  br label %9

9:                                                ; preds = %40, %3
  %10 = load i32, ptr %7, align 4, !tbaa !3
  %11 = zext i32 %10 to i64
  %12 = icmp ult i64 %11, 7
  br i1 %12, label %13, label %16

13:                                               ; preds = %9
  %14 = load i32, ptr %8, align 4, !tbaa !3
  %15 = icmp eq i32 %14, 0
  br label %16

16:                                               ; preds = %13, %9
  %17 = phi i1 [ false, %9 ], [ %15, %13 ]
  br i1 %17, label %18, label %43

18:                                               ; preds = %16
  %19 = load ptr, ptr %4, align 8, !tbaa !19
  %20 = load i32, ptr %7, align 4, !tbaa !3
  %21 = zext i32 %20 to i64
  %22 = getelementptr inbounds nuw [7 x %struct.anon.1], ptr @sqlite3_ieee_init.aFunc, i64 0, i64 %21
  %23 = getelementptr inbounds nuw %struct.anon.1, ptr %22, i32 0, i32 0
  %24 = load ptr, ptr %23, align 8, !tbaa !62
  %25 = load i32, ptr %7, align 4, !tbaa !3
  %26 = zext i32 %25 to i64
  %27 = getelementptr inbounds nuw [7 x %struct.anon.1], ptr @sqlite3_ieee_init.aFunc, i64 0, i64 %26
  %28 = getelementptr inbounds nuw %struct.anon.1, ptr %27, i32 0, i32 1
  %29 = load i32, ptr %28, align 8, !tbaa !64
  %30 = load i32, ptr %7, align 4, !tbaa !3
  %31 = zext i32 %30 to i64
  %32 = getelementptr inbounds nuw [7 x %struct.anon.1], ptr @sqlite3_ieee_init.aFunc, i64 0, i64 %31
  %33 = getelementptr inbounds nuw %struct.anon.1, ptr %32, i32 0, i32 2
  %34 = load i32, ptr %7, align 4, !tbaa !3
  %35 = zext i32 %34 to i64
  %36 = getelementptr inbounds nuw [7 x %struct.anon.1], ptr @sqlite3_ieee_init.aFunc, i64 0, i64 %35
  %37 = getelementptr inbounds nuw %struct.anon.1, ptr %36, i32 0, i32 3
  %38 = load ptr, ptr %37, align 8, !tbaa !66
  %39 = call i32 @sqlite3_create_function(ptr noundef %19, ptr noundef %24, i32 noundef %29, i32 noundef 2097153, ptr noundef %33, ptr noundef %38, ptr noundef null, ptr noundef null)
  store i32 %39, ptr %8, align 4, !tbaa !3
  br label %40

40:                                               ; preds = %18
  %41 = load i32, ptr %7, align 4, !tbaa !3
  %42 = add i32 %41, 1
  store i32 %42, ptr %7, align 4, !tbaa !3
  br label %9, !llvm.loop !97

43:                                               ; preds = %16
  %44 = load i32, ptr %8, align 4, !tbaa !3
  call void @llvm.lifetime.end.p0(i64 4, ptr %8) #14
  call void @llvm.lifetime.end.p0(i64 4, ptr %7) #14
  ret i32 %44
}