; Function Attrs: nounwind uwtable
define i32 @sqlite3_ieee_init(ptr noundef %0, ptr noundef readnone captures(none) %1, ptr noundef readnone captures(none) %2) local_unnamed_addr #2 {
  br label %4

4:                                                ; preds = %3, %4
  %indvars.iv = phi i64 [ 0, %3 ], [ %indvars.iv.next, %4 ]
  %5 = getelementptr inbounds nuw [7 x %struct.anon.1], ptr @sqlite3_ieee_init.aFunc, i64 0, i64 %indvars.iv
  %6 = load ptr, ptr %5, align 8, !tbaa !51
  %7 = getelementptr inbounds nuw i8, ptr %5, i64 8
  %8 = load i32, ptr %7, align 8, !tbaa !53
  %9 = getelementptr inbounds nuw i8, ptr %5, i64 12
  %10 = getelementptr inbounds nuw i8, ptr %5, i64 16
  %11 = load ptr, ptr %10, align 8, !tbaa !55
  %12 = tail call i32 @sqlite3_create_function(ptr noundef %0, ptr noundef %6, i32 noundef %8, i32 noundef 2097153, ptr noundef nonnull %9, ptr noundef %11, ptr noundef null, ptr noundef null) #43
  %indvars.iv.next = add nuw nsw i64 %indvars.iv, 1
  %13 = icmp samesign ult i64 %indvars.iv, 6
  %14 = icmp eq i32 %12, 0
  %15 = select i1 %13, i1 %14, i1 false
  br i1 %15, label %4, label %16, !llvm.loop !92

16:                                               ; preds = %4
  ret i32 %12
}